#include <math.h>
#include <stdio.h>
#include <stdlib.h>
#include <string.h>

int main()
{
	int n,i,len1,len2,j;
	char x[100]={0};
	char y[100]={0};
	char z[100]={0};
	scanf("%d",&n);
	for(j=0;j<n;j++)
	{
		scanf ("%s",x);
	    scanf ("%s",y);
        len2=strlen(y);
		len1=strlen(x);
		z[0]=x[len1-1]+10-y[len2-1]+48;
		for(i=1;i<len2;i++)
		z[i]=x[len1-1-i]-1+10-y[len2-1-i]+48;
		for(i=len2;i<len1;i++)
			z[i]=x[len1-1-i]+10-1;
		for(i=0;i<len1;i++)
		{if(z[i]>57)
		{z[i+1]=z[i+1]+1;
		z[i]=z[i]-10;
		}
		}
		for(i=len1-1;i>=0;i--)
			printf("%d",z[i]-48);
		printf("\n");
	}
	return 0;

}
